target datalayout = "e-m:e-p270:32:32-p271:32:32-p272:64:64-i64:64-i128:128-f80:128-n8:16:32:64-S128"
target triple = "x86_64-pc-linux-gnu"

%struct.TupleDescData = type { i32, i32, i32, i32, ptr, [0 x %struct.CompactAttribute] }
%struct.CompactAttribute = type { i32, i16, i8, i8, i8, i8, i8, i8, i8 }
%struct.ExpandedRecordHeader = type { %struct.ExpandedObjectHeader, i32, i32, i32, i32, i32, ptr, i64, ptr, ptr, i32, i64, i64, i32, i8, ptr, ptr, ptr, ptr, ptr, ptr, %struct.MemoryContextCallback }
%struct.ExpandedObjectHeader = type { i32, ptr, ptr, [10 x i8], [10 x i8] }
%struct.MemoryContextCallback = type { ptr, ptr, ptr }
%struct.HeapTupleData = type { i32, %struct.ItemPointerData, i32, ptr }
%struct.ItemPointerData = type { %struct.BlockIdData, i16 }
%struct.BlockIdData = type { i16, i16 }
%struct.varattrib_1b = type { i8, [0 x i8] }

; Function Attrs: inlinehint nounwind uwtable
define internal i32 @BITMAPLEN(i32 noundef %0) #5 {
  %2 = alloca i32, align 4
  store i32 %0, ptr %2, align 4
  %3 = load i32, ptr %2, align 4
  %4 = add i32 %3, 7
  %5 = sdiv i32 %4, 8
  ret i32 %5
}

; Function Attrs: inlinehint nounwind uwtable
define internal ptr @DatumGetPointer(i64 noundef %0) #5 {
  %2 = alloca i64, align 8
  store i64 %0, ptr %2, align 8
  %3 = load i64, ptr %2, align 8
  %4 = inttoptr i64 %3 to ptr
  ret ptr %4
}

; Function Attrs: inlinehint nounwind uwtable
define internal ptr @TupleDescCompactAttr(ptr noundef %0, i32 noundef %1) #5 {
  %3 = alloca ptr, align 8
  %4 = alloca i32, align 4
  %5 = alloca ptr, align 8
  store ptr %0, ptr %3, align 8
  store i32 %1, ptr %4, align 4
  call void @llvm.lifetime.start.p0(i64 8, ptr %5) #9
  %6 = load ptr, ptr %3, align 8
  %7 = getelementptr inbounds nuw %struct.TupleDescData, ptr %6, i32 0, i32 5
  %8 = load i32, ptr %4, align 4
  %9 = sext i32 %8 to i64
  %10 = getelementptr inbounds [0 x %struct.CompactAttribute], ptr %7, i64 0, i64 %9
  store ptr %10, ptr %5, align 8
  %11 = load ptr, ptr %5, align 8
  call void @llvm.lifetime.end.p0(i64 8, ptr %5) #9
  ret ptr %11
}

; Function Attrs: inlinehint nounwind uwtable
define internal ptr @expanded_record_get_tupdesc(ptr noundef %0) #5 {
  %2 = alloca ptr, align 8
  %3 = alloca ptr, align 8
  store ptr %0, ptr %3, align 8
  %4 = load ptr, ptr %3, align 8
  %5 = getelementptr inbounds nuw %struct.ExpandedRecordHeader, ptr %4, i32 0, i32 6
  %6 = load ptr, ptr %5, align 8
  %7 = icmp ne ptr %6, null
  %8 = zext i1 %7 to i32
  %9 = icmp ne i32 %8, 0
  %10 = zext i1 %9 to i32
  %11 = sext i32 %10 to i64
  %12 = call i64 @llvm.expect.i64(i64 %11, i64 1)
  %13 = icmp ne i64 %12, 0
  br i1 %13, label %14, label %18

14:                                               ; preds = %1
  %15 = load ptr, ptr %3, align 8
  %16 = getelementptr inbounds nuw %struct.ExpandedRecordHeader, ptr %15, i32 0, i32 6
  %17 = load ptr, ptr %16, align 8
  store ptr %17, ptr %2, align 8
  br label %21

18:                                               ; preds = %1
  %19 = load ptr, ptr %3, align 8
  %20 = call ptr @expanded_record_fetch_tupdesc(ptr noundef %19)
  store ptr %20, ptr %2, align 8
  br label %21

21:                                               ; preds = %18, %14
  %22 = load ptr, ptr %2, align 8
  ret ptr %22
}

; Function Attrs: nounwind uwtable
define internal i64 @ER_get_flat_size(ptr noundef %0) #0 {
  %2 = alloca i64, align 8
  %3 = alloca ptr, align 8
  %4 = alloca ptr, align 8
  %5 = alloca ptr, align 8
  %6 = alloca i64, align 8
  %7 = alloca i64, align 8
  %8 = alloca i32, align 4
  %9 = alloca i8, align 1
  %10 = alloca i32, align 4
  %11 = alloca i32, align 4
  %12 = alloca ptr, align 8
  store ptr %0, ptr %3, align 8
  call void @llvm.lifetime.start.p0(i64 8, ptr %4) #9
  %13 = load ptr, ptr %3, align 8
  store ptr %13, ptr %4, align 8
  call void @llvm.lifetime.start.p0(i64 8, ptr %5) #9
  call void @llvm.lifetime.start.p0(i64 8, ptr %6) #9
  call void @llvm.lifetime.start.p0(i64 8, ptr %7) #9
  call void @llvm.lifetime.start.p0(i64 4, ptr %8) #9
  call void @llvm.lifetime.start.p0(i64 1, ptr %9) #9
  call void @llvm.lifetime.start.p0(i64 4, ptr %10) #9
  %14 = load ptr, ptr %4, align 8
  %15 = getelementptr inbounds nuw %struct.ExpandedRecordHeader, ptr %14, i32 0, i32 4
  %16 = load i32, ptr %15, align 4
  %17 = icmp eq i32 %16, 2249
  br i1 %17, label %18, label %32

18:                                               ; preds = %1
  %19 = load ptr, ptr %4, align 8
  %20 = getelementptr inbounds nuw %struct.ExpandedRecordHeader, ptr %19, i32 0, i32 5
  %21 = load i32, ptr %20, align 8
  %22 = icmp slt i32 %21, 0
  br i1 %22, label %23, label %32

23:                                               ; preds = %18
  %24 = load ptr, ptr %4, align 8
  %25 = call ptr @expanded_record_get_tupdesc(ptr noundef %24)
  store ptr %25, ptr %5, align 8
  %26 = load ptr, ptr %5, align 8
  call void @assign_record_type_typmod(ptr noundef %26)
  %27 = load ptr, ptr %5, align 8
  %28 = getelementptr inbounds nuw %struct.TupleDescData, ptr %27, i32 0, i32 2
  %29 = load i32, ptr %28, align 8
  %30 = load ptr, ptr %4, align 8
  %31 = getelementptr inbounds nuw %struct.ExpandedRecordHeader, ptr %30, i32 0, i32 5
  store i32 %29, ptr %31, align 8
  br label %32

32:                                               ; preds = %23, %18, %1
  %33 = load ptr, ptr %4, align 8
  %34 = getelementptr inbounds nuw %struct.ExpandedRecordHeader, ptr %33, i32 0, i32 2
  %35 = load i32, ptr %34, align 4
  %36 = and i32 %35, 1
  %37 = icmp ne i32 %36, 0
  br i1 %37, label %38, label %51

38:                                               ; preds = %32
  %39 = load ptr, ptr %4, align 8
  %40 = getelementptr inbounds nuw %struct.ExpandedRecordHeader, ptr %39, i32 0, i32 2
  %41 = load i32, ptr %40, align 4
  %42 = and i32 %41, 16
  %43 = icmp ne i32 %42, 0
  br i1 %43, label %51, label %44

44:                                               ; preds = %38
  %45 = load ptr, ptr %4, align 8
  %46 = getelementptr inbounds nuw %struct.ExpandedRecordHeader, ptr %45, i32 0, i32 15
  %47 = load ptr, ptr %46, align 8
  %48 = getelementptr inbounds nuw %struct.HeapTupleData, ptr %47, i32 0, i32 0
  %49 = load i32, ptr %48, align 8
  %50 = zext i32 %49 to i64
  store i64 %50, ptr %2, align 8
  store i32 1, ptr %11, align 4
  br label %203

51:                                               ; preds = %38, %32
  %52 = load ptr, ptr %4, align 8
  %53 = getelementptr inbounds nuw %struct.ExpandedRecordHeader, ptr %52, i32 0, i32 11
  %54 = load i64, ptr %53, align 8
  %55 = icmp ne i64 %54, 0
  br i1 %55, label %56, label %60

56:                                               ; preds = %51
  %57 = load ptr, ptr %4, align 8
  %58 = getelementptr inbounds nuw %struct.ExpandedRecordHeader, ptr %57, i32 0, i32 11
  %59 = load i64, ptr %58, align 8
  store i64 %59, ptr %2, align 8
  store i32 1, ptr %11, align 4
  br label %203

60:                                               ; preds = %51
  %61 = load ptr, ptr %4, align 8
  %62 = getelementptr inbounds nuw %struct.ExpandedRecordHeader, ptr %61, i32 0, i32 2
  %63 = load i32, ptr %62, align 4
  %64 = and i32 %63, 4
  %65 = icmp ne i32 %64, 0
  br i1 %65, label %68, label %66

66:                                               ; preds = %60
  %67 = load ptr, ptr %4, align 8
  call void @deconstruct_expanded_record(ptr noundef %67)
  br label %68

68:                                               ; preds = %66, %60
  %69 = load ptr, ptr %4, align 8
  %70 = getelementptr inbounds nuw %struct.ExpandedRecordHeader, ptr %69, i32 0, i32 6
  %71 = load ptr, ptr %70, align 8
  store ptr %71, ptr %5, align 8
  %72 = load ptr, ptr %4, align 8
  %73 = getelementptr inbounds nuw %struct.ExpandedRecordHeader, ptr %72, i32 0, i32 2
  %74 = load i32, ptr %73, align 4
  %75 = and i32 %74, 16
  %76 = icmp ne i32 %75, 0
  br i1 %76, label %77, label %140

77:                                               ; preds = %68
  store i32 0, ptr %10, align 4
  br label %78

78:                                               ; preds = %132, %77
  %79 = load i32, ptr %10, align 4
  %80 = load ptr, ptr %4, align 8
  %81 = getelementptr inbounds nuw %struct.ExpandedRecordHeader, ptr %80, i32 0, i32 10
  %82 = load i32, ptr %81, align 8
  %83 = icmp slt i32 %79, %82
  br i1 %83, label %84, label %135

84:                                               ; preds = %78
  call void @llvm.lifetime.start.p0(i64 8, ptr %12) #9
  %85 = load ptr, ptr %5, align 8
  %86 = load i32, ptr %10, align 4
  %87 = call ptr @TupleDescCompactAttr(ptr noundef %85, i32 noundef %86)
  store ptr %87, ptr %12, align 8
  %88 = load ptr, ptr %4, align 8
  %89 = getelementptr inbounds nuw %struct.ExpandedRecordHeader, ptr %88, i32 0, i32 9
  %90 = load ptr, ptr %89, align 8
  %91 = load i32, ptr %10, align 4
  %92 = sext i32 %91 to i64
  %93 = getelementptr inbounds i8, ptr %90, i64 %92
  %94 = load i8, ptr %93, align 1, !range !4, !noundef !5
  %95 = trunc i8 %94 to i1
  br i1 %95, label %131, label %96

96:                                               ; preds = %84
  %97 = load ptr, ptr %12, align 8
  %98 = getelementptr inbounds nuw %struct.CompactAttribute, ptr %97, i32 0, i32 2
  %99 = load i8, ptr %98, align 2, !range !4, !noundef !5
  %100 = trunc i8 %99 to i1
  br i1 %100, label %131, label %101

101:                                              ; preds = %96
  %102 = load ptr, ptr %12, align 8
  %103 = getelementptr inbounds nuw %struct.CompactAttribute, ptr %102, i32 0, i32 1
  %104 = load i16, ptr %103, align 4
  %105 = sext i16 %104 to i32
  %106 = icmp eq i32 %105, -1
  br i1 %106, label %107, label %131

107:                                              ; preds = %101
  %108 = load ptr, ptr %4, align 8
  %109 = getelementptr inbounds nuw %struct.ExpandedRecordHeader, ptr %108, i32 0, i32 8
  %110 = load ptr, ptr %109, align 8
  %111 = load i32, ptr %10, align 4
  %112 = sext i32 %111 to i64
  %113 = getelementptr inbounds i64, ptr %110, i64 %112
  %114 = load i64, ptr %113, align 8
  %115 = call ptr @DatumGetPointer(i64 noundef %114)
  %116 = getelementptr inbounds nuw %struct.varattrib_1b, ptr %115, i32 0, i32 0
  %117 = load i8, ptr %116, align 1
  %118 = zext i8 %117 to i32
  %119 = icmp eq i32 %118, 1
  br i1 %119, label %120, label %131

120:                                              ; preds = %107
  %121 = load ptr, ptr %4, align 8
  %122 = load i32, ptr %10, align 4
  %123 = add i32 %122, 1
  %124 = load ptr, ptr %4, align 8
  %125 = getelementptr inbounds nuw %struct.ExpandedRecordHeader, ptr %124, i32 0, i32 8
  %126 = load ptr, ptr %125, align 8
  %127 = load i32, ptr %10, align 4
  %128 = sext i32 %127 to i64
  %129 = getelementptr inbounds i64, ptr %126, i64 %128
  %130 = load i64, ptr %129, align 8
  call void @expanded_record_set_field_internal(ptr noundef %121, i32 noundef %123, i64 noundef %130, i1 noundef zeroext false, i1 noundef zeroext true, i1 noundef zeroext false)
  br label %131

131:                                              ; preds = %120, %107, %101, %96, %84
  call void @llvm.lifetime.end.p0(i64 8, ptr %12) #9
  br label %132

132:                                              ; preds = %131
  %133 = load i32, ptr %10, align 4
  %134 = add i32 %133, 1
  store i32 %134, ptr %10, align 4
  br label %78, !llvm.loop !10

135:                                              ; preds = %78
  %136 = load ptr, ptr %4, align 8
  %137 = getelementptr inbounds nuw %struct.ExpandedRecordHeader, ptr %136, i32 0, i32 2
  %138 = load i32, ptr %137, align 4
  %139 = and i32 %138, -17
  store i32 %139, ptr %137, align 4
  br label %140

140:                                              ; preds = %135, %68
  store i8 0, ptr %9, align 1
  store i32 0, ptr %10, align 4
  br label %141

141:                                              ; preds = %158, %140
  %142 = load i32, ptr %10, align 4
  %143 = load ptr, ptr %4, align 8
  %144 = getelementptr inbounds nuw %struct.ExpandedRecordHeader, ptr %143, i32 0, i32 10
  %145 = load i32, ptr %144, align 8
  %146 = icmp slt i32 %142, %145
  br i1 %146, label %147, label %161

147:                                              ; preds = %141
  %148 = load ptr, ptr %4, align 8
  %149 = getelementptr inbounds nuw %struct.ExpandedRecordHeader, ptr %148, i32 0, i32 9
  %150 = load ptr, ptr %149, align 8
  %151 = load i32, ptr %10, align 4
  %152 = sext i32 %151 to i64
  %153 = getelementptr inbounds i8, ptr %150, i64 %152
  %154 = load i8, ptr %153, align 1, !range !4, !noundef !5
  %155 = trunc i8 %154 to i1
  br i1 %155, label %156, label %157

156:                                              ; preds = %147
  store i8 1, ptr %9, align 1
  br label %161

157:                                              ; preds = %147
  br label %158

158:                                              ; preds = %157
  %159 = load i32, ptr %10, align 4
  %160 = add i32 %159, 1
  store i32 %160, ptr %10, align 4
  br label %141, !llvm.loop !11

161:                                              ; preds = %156, %141
  store i64 23, ptr %6, align 8
  %162 = load i8, ptr %9, align 1, !range !4, !noundef !5
  %163 = trunc i8 %162 to i1
  br i1 %163, label %164, label %172

164:                                              ; preds = %161
  %165 = load ptr, ptr %5, align 8
  %166 = getelementptr inbounds nuw %struct.TupleDescData, ptr %165, i32 0, i32 0
  %167 = load i32, ptr %166, align 8
  %168 = call i32 @BITMAPLEN(i32 noundef %167)
  %169 = sext i32 %168 to i64
  %170 = load i64, ptr %6, align 8
  %171 = add i64 %170, %169
  store i64 %171, ptr %6, align 8
  br label %172

172:                                              ; preds = %164, %161
  %173 = load i64, ptr %6, align 8
  %174 = add i64 %173, 7
  %175 = and i64 %174, -8
  store i64 %175, ptr %6, align 8
  %176 = trunc i64 %175 to i32
  store i32 %176, ptr %8, align 4
  %177 = load ptr, ptr %5, align 8
  %178 = load ptr, ptr %4, align 8
  %179 = getelementptr inbounds nuw %struct.ExpandedRecordHeader, ptr %178, i32 0, i32 8
  %180 = load ptr, ptr %179, align 8
  %181 = load ptr, ptr %4, align 8
  %182 = getelementptr inbounds nuw %struct.ExpandedRecordHeader, ptr %181, i32 0, i32 9
  %183 = load ptr, ptr %182, align 8
  %184 = call i64 @heap_compute_data_size(ptr noundef %177, ptr noundef %180, ptr noundef %183)
  store i64 %184, ptr %7, align 8
  %185 = load i64, ptr %7, align 8
  %186 = load i64, ptr %6, align 8
  %187 = add i64 %186, %185
  store i64 %187, ptr %6, align 8
  %188 = load i64, ptr %6, align 8
  %189 = load ptr, ptr %4, align 8
  %190 = getelementptr inbounds nuw %struct.ExpandedRecordHeader, ptr %189, i32 0, i32 11
  store i64 %188, ptr %190, align 8
  %191 = load i64, ptr %7, align 8
  %192 = load ptr, ptr %4, align 8
  %193 = getelementptr inbounds nuw %struct.ExpandedRecordHeader, ptr %192, i32 0, i32 12
  store i64 %191, ptr %193, align 8
  %194 = load i32, ptr %8, align 4
  %195 = load ptr, ptr %4, align 8
  %196 = getelementptr inbounds nuw %struct.ExpandedRecordHeader, ptr %195, i32 0, i32 13
  store i32 %194, ptr %196, align 8
  %197 = load i8, ptr %9, align 1, !range !4, !noundef !5
  %198 = trunc i8 %197 to i1
  %199 = load ptr, ptr %4, align 8
  %200 = getelementptr inbounds nuw %struct.ExpandedRecordHeader, ptr %199, i32 0, i32 14
  %201 = zext i1 %198 to i8
  store i8 %201, ptr %200, align 4
  %202 = load i64, ptr %6, align 8
  store i64 %202, ptr %2, align 8
  store i32 1, ptr %11, align 4
  br label %203

203:                                              ; preds = %172, %56, %44
  call void @llvm.lifetime.end.p0(i64 4, ptr %10) #9
  call void @llvm.lifetime.end.p0(i64 1, ptr %9) #9
  call void @llvm.lifetime.end.p0(i64 4, ptr %8) #9
  call void @llvm.lifetime.end.p0(i64 8, ptr %7) #9
  call void @llvm.lifetime.end.p0(i64 8, ptr %6) #9
  call void @llvm.lifetime.end.p0(i64 8, ptr %5) #9
  call void @llvm.lifetime.end.p0(i64 8, ptr %4) #9
  %204 = load i64, ptr %2, align 8
  ret i64 %204
}