; Function Attrs: nounwind uwtable
define internal i64 @ER_get_flat_size(ptr noundef %0) #0 {
  %2 = getelementptr inbounds nuw i8, ptr %0, i64 60
  %3 = load i32, ptr %2, align 4
  %4 = icmp eq i32 %3, 2249
  br i1 %4, label %5, label %16

5:                                                ; preds = %1
  %6 = getelementptr inbounds nuw i8, ptr %0, i64 64
  %7 = load i32, ptr %6, align 8
  %8 = icmp slt i32 %7, 0
  br i1 %8, label %9, label %16

9:                                                ; preds = %5
  %10 = getelementptr inbounds nuw i8, ptr %0, i64 72
  %11 = load ptr, ptr %10, align 8
  %.not.i = icmp eq ptr %11, null
  br i1 %.not.i, label %12, label %expanded_record_get_tupdesc.exit, !prof !4

12:                                               ; preds = %9
  %13 = tail call ptr @expanded_record_fetch_tupdesc(ptr noundef nonnull %0)
  br label %expanded_record_get_tupdesc.exit

expanded_record_get_tupdesc.exit:                 ; preds = %9, %12
  %.0.i = phi ptr [ %13, %12 ], [ %11, %9 ]
  tail call void @assign_record_type_typmod(ptr noundef %.0.i) #8
  %14 = getelementptr inbounds nuw i8, ptr %.0.i, i64 8
  %15 = load i32, ptr %14, align 8
  store i32 %15, ptr %6, align 8
  br label %16

16:                                               ; preds = %expanded_record_get_tupdesc.exit, %5, %1
  %17 = getelementptr inbounds nuw i8, ptr %0, i64 52
  %18 = load i32, ptr %17, align 4
  %19 = and i32 %18, 17
  %or.cond = icmp eq i32 %19, 1
  br i1 %or.cond, label %20, label %25

20:                                               ; preds = %16
  %21 = getelementptr inbounds nuw i8, ptr %0, i64 136
  %22 = load ptr, ptr %21, align 8
  %23 = load i32, ptr %22, align 8
  %24 = zext i32 %23 to i64
  br label %96

25:                                               ; preds = %16
  %26 = getelementptr inbounds nuw i8, ptr %0, i64 112
  %27 = load i64, ptr %26, align 8
  %.not60 = icmp eq i64 %27, 0
  br i1 %.not60, label %28, label %96

28:                                               ; preds = %25
  %29 = and i32 %18, 4
  %.not61 = icmp eq i32 %29, 0
  br i1 %.not61, label %30, label %31

30:                                               ; preds = %28
  tail call void @deconstruct_expanded_record(ptr noundef nonnull %0)
  %.pre = load i32, ptr %17, align 4
  br label %31

31:                                               ; preds = %30, %28
  %32 = phi i32 [ %.pre, %30 ], [ %18, %28 ]
  %33 = getelementptr inbounds nuw i8, ptr %0, i64 72
  %34 = load ptr, ptr %33, align 8
  %35 = and i32 %32, 16
  %.not62 = icmp eq i32 %35, 0
  %.phi.trans.insert = getelementptr inbounds nuw i8, ptr %0, i64 104
  %.pre75 = load i32, ptr %.phi.trans.insert, align 8
  br i1 %.not62, label %._crit_edge74, label %.preheader

.preheader:                                       ; preds = %31
  %36 = icmp sgt i32 %.pre75, 0
  br i1 %36, label %.lr.ph, label %._crit_edge

.lr.ph:                                           ; preds = %.preheader
  %37 = getelementptr inbounds nuw i8, ptr %34, i64 24
  %38 = getelementptr inbounds nuw i8, ptr %0, i64 96
  %39 = getelementptr inbounds nuw i8, ptr %0, i64 88
  br label %40

40:                                               ; preds = %.lr.ph, %65
  %41 = phi i32 [ %.pre75, %.lr.ph ], [ %66, %65 ]
  %indvars.iv = phi i64 [ 0, %.lr.ph ], [ %indvars.iv.next, %65 ]
  %42 = getelementptr inbounds nuw [0 x %struct.CompactAttribute], ptr %37, i64 0, i64 %indvars.iv
  %43 = load ptr, ptr %38, align 8
  %44 = getelementptr inbounds nuw i8, ptr %43, i64 %indvars.iv
  %45 = load i8, ptr %44, align 1, !range !5, !noundef !6
  %46 = trunc nuw i8 %45 to i1
  br i1 %46, label %65, label %47

47:                                               ; preds = %40
  %48 = getelementptr inbounds nuw i8, ptr %42, i64 6
  %49 = load i8, ptr %48, align 2, !range !5, !noundef !6
  %50 = trunc nuw i8 %49 to i1
  br i1 %50, label %65, label %51

51:                                               ; preds = %47
  %52 = getelementptr inbounds nuw i8, ptr %42, i64 4
  %53 = load i16, ptr %52, align 4
  %54 = icmp eq i16 %53, -1
  br i1 %54, label %55, label %65

55:                                               ; preds = %51
  %56 = load ptr, ptr %39, align 8
  %57 = getelementptr inbounds nuw i64, ptr %56, i64 %indvars.iv
  %58 = load i64, ptr %57, align 8
  %59 = inttoptr i64 %58 to ptr
  %60 = load i8, ptr %59, align 1
  %61 = icmp eq i8 %60, 1
  br i1 %61, label %62, label %65

62:                                               ; preds = %55
  %63 = trunc i64 %indvars.iv to i32
  %64 = add i32 %63, 1
  tail call void @expanded_record_set_field_internal(ptr noundef nonnull %0, i32 noundef %64, i64 noundef %58, i1 noundef zeroext false, i1 noundef zeroext true, i1 noundef zeroext false)
  %.pre72 = load i32, ptr %.phi.trans.insert, align 8
  br label %65

65:                                               ; preds = %62, %55, %51, %47, %40
  %66 = phi i32 [ %.pre72, %62 ], [ %41, %55 ], [ %41, %51 ], [ %41, %47 ], [ %41, %40 ]
  %indvars.iv.next = add nuw nsw i64 %indvars.iv, 1
  %67 = sext i32 %66 to i64
  %68 = icmp slt i64 %indvars.iv.next, %67
  br i1 %68, label %40, label %._crit_edge.loopexit, !llvm.loop !12

._crit_edge.loopexit:                             ; preds = %65
  %.pre73 = load i32, ptr %17, align 4
  br label %._crit_edge

._crit_edge:                                      ; preds = %._crit_edge.loopexit, %.preheader
  %69 = phi i32 [ %66, %._crit_edge.loopexit ], [ %.pre75, %.preheader ]
  %70 = phi i32 [ %.pre73, %._crit_edge.loopexit ], [ %32, %.preheader ]
  %71 = and i32 %70, -17
  store i32 %71, ptr %17, align 4
  br label %._crit_edge74

._crit_edge74:                                    ; preds = %31, %._crit_edge
  %72 = phi i32 [ %69, %._crit_edge ], [ %.pre75, %31 ]
  %73 = icmp sgt i32 %72, 0
  %74 = getelementptr inbounds nuw i8, ptr %0, i64 96
  %75 = load ptr, ptr %74, align 8
  br i1 %73, label %.lr.ph67, label %.critedge

.lr.ph67:                                         ; preds = %._crit_edge74
  %wide.trip.count = zext nneg i32 %72 to i64
  br label %77

76:                                               ; preds = %77
  %indvars.iv.next70 = add nuw nsw i64 %indvars.iv69, 1
  %exitcond.not = icmp eq i64 %indvars.iv.next70, %wide.trip.count
  br i1 %exitcond.not, label %.critedge, label %77, !llvm.loop !13

77:                                               ; preds = %.lr.ph67, %76
  %indvars.iv69 = phi i64 [ 0, %.lr.ph67 ], [ %indvars.iv.next70, %76 ]
  %78 = getelementptr inbounds nuw i8, ptr %75, i64 %indvars.iv69
  %79 = load i8, ptr %78, align 1, !range !5, !noundef !6
  %80 = trunc nuw i8 %79 to i1
  br i1 %80, label %81, label %76

81:                                               ; preds = %77
  %82 = load i32, ptr %34, align 8
  %83 = add i32 %82, 7
  %84 = sdiv i32 %83, 8
  %narrow = add nsw i32 %84, 30
  %85 = and i32 %narrow, -8
  %86 = sext i32 %85 to i64
  br label %.critedge

.critedge:                                        ; preds = %76, %._crit_edge74, %81
  %87 = phi i8 [ 1, %81 ], [ 0, %._crit_edge74 ], [ 0, %76 ]
  %.057 = phi i64 [ %86, %81 ], [ 24, %._crit_edge74 ], [ 24, %76 ]
  %88 = trunc nsw i64 %.057 to i32
  %89 = getelementptr inbounds nuw i8, ptr %0, i64 88
  %90 = load ptr, ptr %89, align 8
  %91 = tail call i64 @heap_compute_data_size(ptr noundef %34, ptr noundef %90, ptr noundef %75) #8
  %92 = add i64 %91, %.057
  store i64 %92, ptr %26, align 8
  %93 = getelementptr inbounds nuw i8, ptr %0, i64 120
  store i64 %91, ptr %93, align 8
  %94 = getelementptr inbounds nuw i8, ptr %0, i64 128
  store i32 %88, ptr %94, align 8
  %95 = getelementptr inbounds nuw i8, ptr %0, i64 132
  store i8 %87, ptr %95, align 4
  br label %96

96:                                               ; preds = %25, %.critedge, %20
  %.0 = phi i64 [ %92, %.critedge ], [ %24, %20 ], [ %27, %25 ]
  ret i64 %.0
}